; ModuleID = '28/1819.c'
source_filename = "28/1819.c"
target datalayout = "e-m:e-p270:32:32-p271:32:32-p272:64:64-i64:64-f80:128-n8:16:32:64-S128"
target triple = "x86_64-pc-linux-gnu"

@.str = private unnamed_addr constant [4 x i8] c"%d,\00", align 1
@.str.1 = private unnamed_addr constant [3 x i8] c"%d\00", align 1

; Function Attrs: noinline nounwind uwtable
define dso_local i32 @main(i32 %0, i8** %1) #0 {
  %3 = alloca i32, align 4
  %4 = alloca i32, align 4
  %5 = alloca i8**, align 8
  %6 = alloca [300 x [50 x i8]], align 16
  %7 = alloca [1000 x i8], align 16
  %8 = alloca i32, align 4
  %9 = alloca [300 x i32], align 16
  %10 = alloca i32, align 4
  %11 = alloca i32, align 4
  store i32 0, i32* %3, align 4
  store i32 %0, i32* %4, align 4
  store i8** %1, i8*** %5, align 8
  %12 = getelementptr inbounds [1000 x i8], [1000 x i8]* %7, i64 0, i64 0
  %13 = call i32 (i8*, ...) bitcast (i32 (...)* @gets to i32 (i8*, ...)*)(i8* %12)
  %14 = bitcast [300 x i32]* %9 to i8*
  call void @llvm.memset.p0i8.i64(i8* align 16 %14, i8 0, i64 1200, i1 false)
  store i32 0, i32* %10, align 4
  store i32 0, i32* %8, align 4
  br label %15

15:                                               ; preds = %40, %2
  %16 = load i32, i32* %8, align 4
  %17 = sext i32 %16 to i64
  %18 = getelementptr inbounds [1000 x i8], [1000 x i8]* %7, i64 0, i64 0
  %19 = call i64 @strlen(i8* %18) #4
  %20 = icmp ult i64 %17, %19
  br i1 %20, label %21, label %43

21:                                               ; preds = %15
  %22 = load i32, i32* %8, align 4
  %23 = sext i32 %22 to i64
  %24 = getelementptr inbounds [1000 x i8], [1000 x i8]* %7, i64 0, i64 %23
  %25 = load i8, i8* %24, align 1
  %26 = sext i8 %25 to i32
  %27 = icmp eq i32 %26, 32
  br i1 %27, label %28, label %39

28:                                               ; preds = %21
  %29 = load i32, i32* %8, align 4
  %30 = sub nsw i32 %29, 1
  %31 = sext i32 %30 to i64
  %32 = getelementptr inbounds [1000 x i8], [1000 x i8]* %7, i64 0, i64 %31
  %33 = load i8, i8* %32, align 1
  %34 = sext i8 %33 to i32
  %35 = icmp ne i32 %34, 32
  br i1 %35, label %36, label %39

36:                                               ; preds = %28
  %37 = load i32, i32* %10, align 4
  %38 = add nsw i32 %37, 1
  store i32 %38, i32* %10, align 4
  br label %39

39:                                               ; preds = %36, %28, %21
  br label %40

40:                                               ; preds = %39
  %41 = load i32, i32* %8, align 4
  %42 = add nsw i32 %41, 1
  store i32 %42, i32* %8, align 4
  br label %15

43:                                               ; preds = %15
  %44 = load i32, i32* %10, align 4
  %45 = add nsw i32 %44, 1
  store i32 %45, i32* %10, align 4
  store i32 1, i32* %11, align 4
  store i32 0, i32* %8, align 4
  br label %46

46:                                               ; preds = %78, %43
  %47 = load i32, i32* %8, align 4
  %48 = sext i32 %47 to i64
  %49 = getelementptr inbounds [1000 x i8], [1000 x i8]* %7, i64 0, i64 0
  %50 = call i64 @strlen(i8* %49) #4
  %51 = icmp ult i64 %48, %50
  br i1 %51, label %52, label %81

52:                                               ; preds = %46
  %53 = load i32, i32* %8, align 4
  %54 = sext i32 %53 to i64
  %55 = getelementptr inbounds [1000 x i8], [1000 x i8]* %7, i64 0, i64 %54
  %56 = load i8, i8* %55, align 1
  %57 = sext i8 %56 to i32
  %58 = icmp ne i32 %57, 32
  br i1 %58, label %59, label %65

59:                                               ; preds = %52
  %60 = load i32, i32* %11, align 4
  %61 = sext i32 %60 to i64
  %62 = getelementptr inbounds [300 x i32], [300 x i32]* %9, i64 0, i64 %61
  %63 = load i32, i32* %62, align 4
  %64 = add nsw i32 %63, 1
  store i32 %64, i32* %62, align 4
  br label %77

65:                                               ; preds = %52
  %66 = load i32, i32* %8, align 4
  %67 = add nsw i32 %66, 1
  %68 = sext i32 %67 to i64
  %69 = getelementptr inbounds [1000 x i8], [1000 x i8]* %7, i64 0, i64 %68
  %70 = load i8, i8* %69, align 1
  %71 = sext i8 %70 to i32
  %72 = icmp ne i32 %71, 32
  br i1 %72, label %73, label %76

73:                                               ; preds = %65
  %74 = load i32, i32* %11, align 4
  %75 = add nsw i32 %74, 1
  store i32 %75, i32* %11, align 4
  br label %76

76:                                               ; preds = %73, %65
  br label %77

77:                                               ; preds = %76, %59
  br label %78

78:                                               ; preds = %77
  %79 = load i32, i32* %8, align 4
  %80 = add nsw i32 %79, 1
  store i32 %80, i32* %8, align 4
  br label %46

81:                                               ; preds = %46
  store i32 1, i32* %8, align 4
  br label %82

82:                                               ; preds = %92, %81
  %83 = load i32, i32* %8, align 4
  %84 = load i32, i32* %10, align 4
  %85 = icmp slt i32 %83, %84
  br i1 %85, label %86, label %95

86:                                               ; preds = %82
  %87 = load i32, i32* %8, align 4
  %88 = sext i32 %87 to i64
  %89 = getelementptr inbounds [300 x i32], [300 x i32]* %9, i64 0, i64 %88
  %90 = load i32, i32* %89, align 4
  %91 = call i32 (i8*, ...) @printf(i8* getelementptr inbounds ([4 x i8], [4 x i8]* @.str, i64 0, i64 0), i32 %90)
  br label %92

92:                                               ; preds = %86
  %93 = load i32, i32* %8, align 4
  %94 = add nsw i32 %93, 1
  store i32 %94, i32* %8, align 4
  br label %82

95:                                               ; preds = %82
  %96 = load i32, i32* %10, align 4
  %97 = sext i32 %96 to i64
  %98 = getelementptr inbounds [300 x i32], [300 x i32]* %9, i64 0, i64 %97
  %99 = load i32, i32* %98, align 4
  %100 = call i32 (i8*, ...) @printf(i8* getelementptr inbounds ([3 x i8], [3 x i8]* @.str.1, i64 0, i64 0), i32 %99)
  ret i32 0
}

declare dso_local i32 @gets(...) #1

; Function Attrs: argmemonly nounwind willreturn
declare void @llvm.memset.p0i8.i64(i8* nocapture writeonly, i8, i64, i1 immarg) #2

; Function Attrs: nounwind readonly
declare dso_local i64 @strlen(i8*) #3

declare dso_local i32 @printf(i8*, ...) #1


!llvm.module.flags = !{!0}
!llvm.ident = !{!1}

!0 = !{i32 1, !"wchar_size", i32 4}
!1 = !{!"clang version 10.0.0-4ubuntu1 "}
